target datalayout = "e-m:e-p270:32:32-p271:32:32-p272:64:64-i64:64-i128:128-f80:128-n8:16:32:64-S128"
target triple = "x86_64-pc-linux-gnu"

%struct._ir_ctx = type { ptr, i32, i32, i32, i32, i32, i32, i32, i32, i32, i32, %struct._ir_insn, ptr, ptr, ptr, i32, i32, i32, ptr, ptr, ptr, ptr, ptr, ptr, i32, i32, i64, i32, i32, i32, i64, i32, i32, i32, i32, ptr, ptr, ptr, ptr, ptr, ptr, %union.anon.13, ptr, i32, i32, i32, i64, i32, i32, i32, ptr, ptr, ptr, ptr, %struct._ir_strtab, [61 x i32], [14 x i32] }
%struct._ir_insn = type { %struct.anon, %union.anon.5 }
%struct.anon = type { %union.anon, %union.anon.4 }
%union.anon = type { i32 }
%union.anon.4 = type { i32 }
%union.anon.5 = type { %union._ir_val }
%union._ir_val = type { double }
%union.anon.13 = type { ptr }
%struct._ir_strtab = type { ptr, i32, i32, i32, i32, ptr, i32, i32 }
%struct.anon.0 = type { %union.anon.1, %union.anon.3 }
%union.anon.1 = type { i16 }
%union.anon.3 = type { i16 }
%struct.anon.2 = type { i8, i8 }

@.str = private unnamed_addr constant [12 x i8] c"%05d %s %s(\00", align 1
@ir_op_name = external global [108 x ptr], align 16
@ir_type_name = external global [14 x ptr], align 16
@.str.1 = private unnamed_addr constant [3 x i8] c")\0A\00", align 1
@ir_op_flags = external constant [108 x i32], align 16
@.str.2 = private unnamed_addr constant [8 x i8] c"%05d %s\00", align 1
@.str.3 = private unnamed_addr constant [4 x i8] c" %s\00", align 1
@.str.4 = private unnamed_addr constant [6 x i8] c" %05d\00", align 1
@.str.5 = private unnamed_addr constant [6 x i8] c"\0A%05d\00", align 1
@.str.6 = private unnamed_addr constant [2 x i8] c"\0A\00", align 1

; Function Attrs: alwaysinline nounwind uwtable
define internal i32 @ir_operands_count(ptr noundef %0, ptr noundef %1) #4 {
  %3 = alloca ptr, align 8
  %4 = alloca ptr, align 8
  %5 = alloca i32, align 4
  %6 = alloca i32, align 4
  store ptr %0, ptr %3, align 8, !tbaa !4
  store ptr %1, ptr %4, align 8, !tbaa !32
  call void @llvm.lifetime.start.p0(i64 4, ptr %5) #6
  %7 = load ptr, ptr %4, align 8, !tbaa !32
  %8 = getelementptr inbounds nuw %struct._ir_insn, ptr %7, i32 0, i32 0
  %9 = getelementptr inbounds nuw %struct.anon, ptr %8, i32 0, i32 0
  %10 = getelementptr inbounds nuw %struct.anon.0, ptr %9, i32 0, i32 0
  %11 = getelementptr inbounds nuw %struct.anon.2, ptr %10, i32 0, i32 0
  %12 = load i8, ptr %11, align 8, !tbaa !33
  %13 = zext i8 %12 to i64
  %14 = getelementptr inbounds nuw [108 x i32], ptr @ir_op_flags, i64 0, i64 %13
  %15 = load i32, ptr %14, align 4, !tbaa !30
  store i32 %15, ptr %5, align 4, !tbaa !30
  call void @llvm.lifetime.start.p0(i64 4, ptr %6) #6
  %16 = load i32, ptr %5, align 4, !tbaa !30
  %17 = and i32 %16, 24
  %18 = lshr i32 %17, 3
  store i32 %18, ptr %6, align 4, !tbaa !30
  %19 = load i32, ptr %5, align 4, !tbaa !30
  %20 = and i32 %19, 4
  %21 = icmp ne i32 %20, 0
  %22 = xor i1 %21, true
  %23 = xor i1 %22, true
  %24 = zext i1 %23 to i32
  %25 = sext i32 %24 to i64
  %26 = call i64 @llvm.expect.i64(i64 %25, i64 0)
  %27 = icmp ne i64 %26, 0
  br i1 %27, label %28, label %35

28:                                               ; preds = %2
  %29 = load ptr, ptr %4, align 8, !tbaa !32
  %30 = getelementptr inbounds nuw %struct._ir_insn, ptr %29, i32 0, i32 0
  %31 = getelementptr inbounds nuw %struct.anon, ptr %30, i32 0, i32 0
  %32 = getelementptr inbounds nuw %struct.anon.0, ptr %31, i32 0, i32 1
  %33 = load i16, ptr %32, align 2, !tbaa !33
  %34 = zext i16 %33 to i32
  store i32 %34, ptr %6, align 4, !tbaa !30
  br label %35

35:                                               ; preds = %28, %2
  %36 = load i32, ptr %6, align 4, !tbaa !30
  call void @llvm.lifetime.end.p0(i64 4, ptr %6) #6
  call void @llvm.lifetime.end.p0(i64 4, ptr %5) #6
  ret i32 %36
}

; Function Attrs: nounwind uwtable
define hidden void @ir_dump(ptr noundef %0, ptr noundef %1) #0 {
  %3 = alloca ptr, align 8
  %4 = alloca ptr, align 8
  %5 = alloca i32, align 4
  %6 = alloca i32, align 4
  %7 = alloca i32, align 4
  %8 = alloca i32, align 4
  %9 = alloca ptr, align 8
  %10 = alloca ptr, align 8
  %11 = alloca i32, align 4
  store ptr %0, ptr %3, align 8, !tbaa !4
  store ptr %1, ptr %4, align 8, !tbaa !9
  call void @llvm.lifetime.start.p0(i64 4, ptr %5) #6
  call void @llvm.lifetime.start.p0(i64 4, ptr %6) #6
  call void @llvm.lifetime.start.p0(i64 4, ptr %7) #6
  call void @llvm.lifetime.start.p0(i64 4, ptr %8) #6
  call void @llvm.lifetime.start.p0(i64 8, ptr %9) #6
  call void @llvm.lifetime.start.p0(i64 8, ptr %10) #6
  call void @llvm.lifetime.start.p0(i64 4, ptr %11) #6
  %12 = load ptr, ptr %3, align 8, !tbaa !4
  %13 = getelementptr inbounds nuw %struct._ir_ctx, ptr %12, i32 0, i32 3
  %14 = load i32, ptr %13, align 8, !tbaa !11
  %15 = sub nsw i32 1, %14
  store i32 %15, ptr %5, align 4, !tbaa !30
  %16 = load ptr, ptr %3, align 8, !tbaa !4
  %17 = getelementptr inbounds nuw %struct._ir_ctx, ptr %16, i32 0, i32 0
  %18 = load ptr, ptr %17, align 8, !tbaa !31
  %19 = load i32, ptr %5, align 4, !tbaa !30
  %20 = sext i32 %19 to i64
  %21 = getelementptr inbounds %struct._ir_insn, ptr %18, i64 %20
  store ptr %21, ptr %10, align 8, !tbaa !32
  br label %22

22:                                               ; preds = %52, %2
  %23 = load i32, ptr %5, align 4, !tbaa !30
  %24 = icmp slt i32 %23, 0
  br i1 %24, label %25, label %57

25:                                               ; preds = %22
  %26 = load ptr, ptr %4, align 8, !tbaa !9
  %27 = load i32, ptr %5, align 4, !tbaa !30
  %28 = load ptr, ptr %10, align 8, !tbaa !32
  %29 = getelementptr inbounds nuw %struct._ir_insn, ptr %28, i32 0, i32 0
  %30 = getelementptr inbounds nuw %struct.anon, ptr %29, i32 0, i32 0
  %31 = getelementptr inbounds nuw %struct.anon.0, ptr %30, i32 0, i32 0
  %32 = getelementptr inbounds nuw %struct.anon.2, ptr %31, i32 0, i32 0
  %33 = load i8, ptr %32, align 8, !tbaa !33
  %34 = zext i8 %33 to i64
  %35 = getelementptr inbounds nuw [108 x ptr], ptr @ir_op_name, i64 0, i64 %34
  %36 = load ptr, ptr %35, align 8, !tbaa !34
  %37 = load ptr, ptr %10, align 8, !tbaa !32
  %38 = getelementptr inbounds nuw %struct._ir_insn, ptr %37, i32 0, i32 0
  %39 = getelementptr inbounds nuw %struct.anon, ptr %38, i32 0, i32 0
  %40 = getelementptr inbounds nuw %struct.anon.0, ptr %39, i32 0, i32 0
  %41 = getelementptr inbounds nuw %struct.anon.2, ptr %40, i32 0, i32 1
  %42 = load i8, ptr %41, align 1, !tbaa !33
  %43 = zext i8 %42 to i64
  %44 = getelementptr inbounds nuw [14 x ptr], ptr @ir_type_name, i64 0, i64 %43
  %45 = load ptr, ptr %44, align 8, !tbaa !34
  %46 = call i32 (ptr, ptr, ...) @fprintf(ptr noundef %26, ptr noundef @.str, i32 noundef %27, ptr noundef %36, ptr noundef %45) #6
  %47 = load ptr, ptr %3, align 8, !tbaa !4
  %48 = load ptr, ptr %10, align 8, !tbaa !32
  %49 = load ptr, ptr %4, align 8, !tbaa !9
  call void @ir_print_const(ptr noundef %47, ptr noundef %48, ptr noundef %49, i1 noundef zeroext true)
  %50 = load ptr, ptr %4, align 8, !tbaa !9
  %51 = call i32 (ptr, ptr, ...) @fprintf(ptr noundef %50, ptr noundef @.str.1) #6
  br label %52

52:                                               ; preds = %25
  %53 = load i32, ptr %5, align 4, !tbaa !30
  %54 = add nsw i32 %53, 1
  store i32 %54, ptr %5, align 4, !tbaa !30
  %55 = load ptr, ptr %10, align 8, !tbaa !32
  %56 = getelementptr inbounds nuw %struct._ir_insn, ptr %55, i32 1
  store ptr %56, ptr %10, align 8, !tbaa !32
  br label %22

57:                                               ; preds = %22
  store i32 1, ptr %5, align 4, !tbaa !30
  %58 = load ptr, ptr %3, align 8, !tbaa !4
  %59 = getelementptr inbounds nuw %struct._ir_ctx, ptr %58, i32 0, i32 0
  %60 = load ptr, ptr %59, align 8, !tbaa !31
  %61 = load i32, ptr %5, align 4, !tbaa !30
  %62 = sext i32 %61 to i64
  %63 = getelementptr inbounds %struct._ir_insn, ptr %60, i64 %62
  store ptr %63, ptr %10, align 8, !tbaa !32
  br label %64

64:                                               ; preds = %189, %57
  %65 = load i32, ptr %5, align 4, !tbaa !30
  %66 = load ptr, ptr %3, align 8, !tbaa !4
  %67 = getelementptr inbounds nuw %struct._ir_ctx, ptr %66, i32 0, i32 1
  %68 = load i32, ptr %67, align 8, !tbaa !35
  %69 = icmp slt i32 %65, %68
  br i1 %69, label %70, label %194

70:                                               ; preds = %64
  %71 = load ptr, ptr %10, align 8, !tbaa !32
  %72 = getelementptr inbounds nuw %struct._ir_insn, ptr %71, i32 0, i32 0
  %73 = getelementptr inbounds nuw %struct.anon, ptr %72, i32 0, i32 0
  %74 = getelementptr inbounds nuw %struct.anon.0, ptr %73, i32 0, i32 0
  %75 = getelementptr inbounds nuw %struct.anon.2, ptr %74, i32 0, i32 0
  %76 = load i8, ptr %75, align 8, !tbaa !33
  %77 = zext i8 %76 to i64
  %78 = getelementptr inbounds nuw [108 x i32], ptr @ir_op_flags, i64 0, i64 %77
  %79 = load i32, ptr %78, align 4, !tbaa !30
  store i32 %79, ptr %11, align 4, !tbaa !30
  %80 = load ptr, ptr %4, align 8, !tbaa !9
  %81 = load i32, ptr %5, align 4, !tbaa !30
  %82 = load ptr, ptr %10, align 8, !tbaa !32
  %83 = getelementptr inbounds nuw %struct._ir_insn, ptr %82, i32 0, i32 0
  %84 = getelementptr inbounds nuw %struct.anon, ptr %83, i32 0, i32 0
  %85 = getelementptr inbounds nuw %struct.anon.0, ptr %84, i32 0, i32 0
  %86 = getelementptr inbounds nuw %struct.anon.2, ptr %85, i32 0, i32 0
  %87 = load i8, ptr %86, align 8, !tbaa !33
  %88 = zext i8 %87 to i64
  %89 = getelementptr inbounds nuw [108 x ptr], ptr @ir_op_name, i64 0, i64 %88
  %90 = load ptr, ptr %89, align 8, !tbaa !34
  %91 = call i32 (ptr, ptr, ...) @fprintf(ptr noundef %80, ptr noundef @.str.2, i32 noundef %81, ptr noundef %90) #6
  %92 = load i32, ptr %11, align 4, !tbaa !30
  %93 = and i32 %92, 256
  %94 = icmp ne i32 %93, 0
  br i1 %94, label %108, label %95

95:                                               ; preds = %70
  %96 = load i32, ptr %11, align 4, !tbaa !30
  %97 = and i32 %96, 1024
  %98 = icmp ne i32 %97, 0
  br i1 %98, label %99, label %120

99:                                               ; preds = %95
  %100 = load ptr, ptr %10, align 8, !tbaa !32
  %101 = getelementptr inbounds nuw %struct._ir_insn, ptr %100, i32 0, i32 0
  %102 = getelementptr inbounds nuw %struct.anon, ptr %101, i32 0, i32 0
  %103 = getelementptr inbounds nuw %struct.anon.0, ptr %102, i32 0, i32 0
  %104 = getelementptr inbounds nuw %struct.anon.2, ptr %103, i32 0, i32 1
  %105 = load i8, ptr %104, align 1, !tbaa !33
  %106 = zext i8 %105 to i32
  %107 = icmp ne i32 %106, 0
  br i1 %107, label %108, label %120

108:                                              ; preds = %99, %70
  %109 = load ptr, ptr %4, align 8, !tbaa !9
  %110 = load ptr, ptr %10, align 8, !tbaa !32
  %111 = getelementptr inbounds nuw %struct._ir_insn, ptr %110, i32 0, i32 0
  %112 = getelementptr inbounds nuw %struct.anon, ptr %111, i32 0, i32 0
  %113 = getelementptr inbounds nuw %struct.anon.0, ptr %112, i32 0, i32 0
  %114 = getelementptr inbounds nuw %struct.anon.2, ptr %113, i32 0, i32 1
  %115 = load i8, ptr %114, align 1, !tbaa !33
  %116 = zext i8 %115 to i64
  %117 = getelementptr inbounds nuw [14 x ptr], ptr @ir_type_name, i64 0, i64 %116
  %118 = load ptr, ptr %117, align 8, !tbaa !34
  %119 = call i32 (ptr, ptr, ...) @fprintf(ptr noundef %109, ptr noundef @.str.3, ptr noundef %118) #6
  br label %120

120:                                              ; preds = %108, %99, %95
  %121 = load ptr, ptr %3, align 8, !tbaa !4
  %122 = load ptr, ptr %10, align 8, !tbaa !32
  %123 = call i32 @ir_operands_count(ptr noundef %121, ptr noundef %122)
  store i32 %123, ptr %7, align 4, !tbaa !30
  store i32 1, ptr %6, align 4, !tbaa !30
  %124 = load ptr, ptr %10, align 8, !tbaa !32
  %125 = getelementptr inbounds nuw %struct._ir_insn, ptr %124, i32 0, i32 0
  %126 = getelementptr inbounds nuw %struct.anon, ptr %125, i32 0, i32 0
  %127 = getelementptr inbounds [1 x i32], ptr %126, i64 0, i64 0
  %128 = getelementptr inbounds i32, ptr %127, i64 1
  store ptr %128, ptr %9, align 8, !tbaa !36
  br label %129

129:                                              ; preds = %142, %120
  %130 = load i32, ptr %6, align 4, !tbaa !30
  %131 = icmp sle i32 %130, 3
  br i1 %131, label %132, label %147

132:                                              ; preds = %129
  %133 = load ptr, ptr %9, align 8, !tbaa !36
  %134 = load i32, ptr %133, align 4, !tbaa !30
  store i32 %134, ptr %8, align 4, !tbaa !30
  %135 = load i32, ptr %8, align 4, !tbaa !30
  %136 = icmp ne i32 %135, 0
  br i1 %136, label %137, label %141

137:                                              ; preds = %132
  %138 = load ptr, ptr %4, align 8, !tbaa !9
  %139 = load i32, ptr %8, align 4, !tbaa !30
  %140 = call i32 (ptr, ptr, ...) @fprintf(ptr noundef %138, ptr noundef @.str.4, i32 noundef %139) #6
  br label %141

141:                                              ; preds = %137, %132
  br label %142

142:                                              ; preds = %141
  %143 = load i32, ptr %6, align 4, !tbaa !30
  %144 = add nsw i32 %143, 1
  store i32 %144, ptr %6, align 4, !tbaa !30
  %145 = load ptr, ptr %9, align 8, !tbaa !36
  %146 = getelementptr inbounds nuw i32, ptr %145, i32 1
  store ptr %146, ptr %9, align 8, !tbaa !36
  br label %129

147:                                              ; preds = %129
  %148 = load i32, ptr %7, align 4, !tbaa !30
  %149 = icmp sgt i32 %148, 3
  br i1 %149, label %150, label %186

150:                                              ; preds = %147
  %151 = load i32, ptr %7, align 4, !tbaa !30
  %152 = sub nsw i32 %151, 3
  store i32 %152, ptr %7, align 4, !tbaa !30
  br label %153

153:                                              ; preds = %182, %150
  %154 = load i32, ptr %5, align 4, !tbaa !30
  %155 = add nsw i32 %154, 1
  store i32 %155, ptr %5, align 4, !tbaa !30
  %156 = load ptr, ptr %10, align 8, !tbaa !32
  %157 = getelementptr inbounds nuw %struct._ir_insn, ptr %156, i32 1
  store ptr %157, ptr %10, align 8, !tbaa !32
  %158 = load ptr, ptr %4, align 8, !tbaa !9
  %159 = load i32, ptr %5, align 4, !tbaa !30
  %160 = call i32 (ptr, ptr, ...) @fprintf(ptr noundef %158, ptr noundef @.str.5, i32 noundef %159) #6
  store i32 0, ptr %6, align 4, !tbaa !30
  br label %161

161:                                              ; preds = %174, %153
  %162 = load i32, ptr %6, align 4, !tbaa !30
  %163 = icmp slt i32 %162, 4
  br i1 %163, label %164, label %179

164:                                              ; preds = %161
  %165 = load ptr, ptr %9, align 8, !tbaa !36
  %166 = load i32, ptr %165, align 4, !tbaa !30
  store i32 %166, ptr %8, align 4, !tbaa !30
  %167 = load i32, ptr %8, align 4, !tbaa !30
  %168 = icmp ne i32 %167, 0
  br i1 %168, label %169, label %173

169:                                              ; preds = %164
  %170 = load ptr, ptr %4, align 8, !tbaa !9
  %171 = load i32, ptr %8, align 4, !tbaa !30
  %172 = call i32 (ptr, ptr, ...) @fprintf(ptr noundef %170, ptr noundef @.str.4, i32 noundef %171) #6
  br label %173

173:                                              ; preds = %169, %164
  br label %174

174:                                              ; preds = %173
  %175 = load i32, ptr %6, align 4, !tbaa !30
  %176 = add nsw i32 %175, 1
  store i32 %176, ptr %6, align 4, !tbaa !30
  %177 = load ptr, ptr %9, align 8, !tbaa !36
  %178 = getelementptr inbounds nuw i32, ptr %177, i32 1
  store ptr %178, ptr %9, align 8, !tbaa !36
  br label %161

179:                                              ; preds = %161
  %180 = load i32, ptr %7, align 4, !tbaa !30
  %181 = sub nsw i32 %180, 4
  store i32 %181, ptr %7, align 4, !tbaa !30
  br label %182

182:                                              ; preds = %179
  %183 = load i32, ptr %7, align 4, !tbaa !30
  %184 = icmp sgt i32 %183, 0
  br i1 %184, label %153, label %185

185:                                              ; preds = %182
  br label %186

186:                                              ; preds = %185, %147
  %187 = load ptr, ptr %4, align 8, !tbaa !9
  %188 = call i32 (ptr, ptr, ...) @fprintf(ptr noundef %187, ptr noundef @.str.6) #6
  br label %189

189:                                              ; preds = %186
  %190 = load i32, ptr %5, align 4, !tbaa !30
  %191 = add nsw i32 %190, 1
  store i32 %191, ptr %5, align 4, !tbaa !30
  %192 = load ptr, ptr %10, align 8, !tbaa !32
  %193 = getelementptr inbounds nuw %struct._ir_insn, ptr %192, i32 1
  store ptr %193, ptr %10, align 8, !tbaa !32
  br label %64

194:                                              ; preds = %64
  call void @llvm.lifetime.end.p0(i64 4, ptr %11) #6
  call void @llvm.lifetime.end.p0(i64 8, ptr %10) #6
  call void @llvm.lifetime.end.p0(i64 8, ptr %9) #6
  call void @llvm.lifetime.end.p0(i64 4, ptr %8) #6
  call void @llvm.lifetime.end.p0(i64 4, ptr %7) #6
  call void @llvm.lifetime.end.p0(i64 4, ptr %6) #6
  call void @llvm.lifetime.end.p0(i64 4, ptr %5) #6
  ret void
}