; Function Attrs: nounwind uwtable
define hidden void @ir_dump(ptr noundef %0, ptr noundef %1) local_unnamed_addr #0 {
  %3 = getelementptr inbounds nuw i8, ptr %0, i64 16
  %4 = load i32, ptr %3, align 8, !tbaa !4
  %5 = load ptr, ptr %0, align 8, !tbaa !26
  %6 = icmp sgt i32 %4, 1
  br i1 %6, label %.lr.ph.preheader, label %._crit_edge

.lr.ph.preheader:                                 ; preds = %2
  %7 = sub nsw i32 1, %4
  %8 = sext i32 %7 to i64
  %9 = getelementptr inbounds %struct._ir_insn, ptr %5, i64 %8
  br label %.lr.ph

.lr.ph:                                           ; preds = %.lr.ph.preheader, %.lr.ph
  %.074 = phi i32 [ %21, %.lr.ph ], [ %7, %.lr.ph.preheader ]
  %.05473 = phi ptr [ %22, %.lr.ph ], [ %9, %.lr.ph.preheader ]
  %10 = load i8, ptr %.05473, align 8, !tbaa !27
  %11 = zext i8 %10 to i64
  %12 = getelementptr inbounds nuw [108 x ptr], ptr @ir_op_name, i64 0, i64 %11
  %13 = load ptr, ptr %12, align 8, !tbaa !28
  %14 = getelementptr inbounds nuw i8, ptr %.05473, i64 1
  %15 = load i8, ptr %14, align 1, !tbaa !27
  %16 = zext i8 %15 to i64
  %17 = getelementptr inbounds nuw [14 x ptr], ptr @ir_type_name, i64 0, i64 %16
  %18 = load ptr, ptr %17, align 8, !tbaa !28
  %19 = tail call i32 (ptr, ptr, ...) @fprintf(ptr noundef %1, ptr noundef nonnull @.str, i32 noundef %.074, ptr noundef %13, ptr noundef %18) #7
  tail call void @ir_print_const(ptr noundef nonnull %0, ptr noundef nonnull %.05473, ptr noundef %1, i1 noundef zeroext true) #7
  %20 = tail call i64 @fwrite(ptr nonnull @.str.1, i64 2, i64 1, ptr %1)
  %21 = add i32 %.074, 1
  %22 = getelementptr inbounds nuw i8, ptr %.05473, i64 16
  %exitcond.not = icmp eq i32 %21, 0
  br i1 %exitcond.not, label %._crit_edge.loopexit, label %.lr.ph

._crit_edge.loopexit:                             ; preds = %.lr.ph
  %.pre = load ptr, ptr %0, align 8, !tbaa !26
  br label %._crit_edge

._crit_edge:                                      ; preds = %._crit_edge.loopexit, %2
  %23 = phi ptr [ %.pre, %._crit_edge.loopexit ], [ %5, %2 ]
  %24 = getelementptr inbounds nuw i8, ptr %0, i64 8
  %25 = load i32, ptr %24, align 8, !tbaa !29
  %26 = icmp sgt i32 %25, 1
  br i1 %26, label %.lr.ph84, label %._crit_edge85

.lr.ph84:                                         ; preds = %._crit_edge, %.loopexit
  %.181 = phi i32 [ %85, %.loopexit ], [ 1, %._crit_edge ]
  %.pn80 = phi ptr [ %.256, %.loopexit ], [ %23, %._crit_edge ]
  %.15582 = getelementptr inbounds nuw i8, ptr %.pn80, i64 16
  %27 = load i8, ptr %.15582, align 8, !tbaa !27
  %28 = zext i8 %27 to i64
  %29 = getelementptr inbounds nuw [108 x i32], ptr @ir_op_flags, i64 0, i64 %28
  %30 = load i32, ptr %29, align 4, !tbaa !30
  %31 = getelementptr inbounds nuw [108 x ptr], ptr @ir_op_name, i64 0, i64 %28
  %32 = load ptr, ptr %31, align 8, !tbaa !28
  %33 = tail call i32 (ptr, ptr, ...) @fprintf(ptr noundef %1, ptr noundef nonnull @.str.2, i32 noundef %.181, ptr noundef %32) #7
  %34 = and i32 %30, 256
  %.not = icmp eq i32 %34, 0
  br i1 %.not, label %35, label %.lr.ph84._crit_edge

.lr.ph84._crit_edge:                              ; preds = %.lr.ph84
  %.phi.trans.insert = getelementptr inbounds nuw i8, ptr %.pn80, i64 17
  %.pre92 = load i8, ptr %.phi.trans.insert, align 1, !tbaa !27
  br label %40

35:                                               ; preds = %.lr.ph84
  %36 = and i32 %30, 1024
  %.not68 = icmp eq i32 %36, 0
  br i1 %.not68, label %46, label %37

37:                                               ; preds = %35
  %38 = getelementptr inbounds nuw i8, ptr %.pn80, i64 17
  %39 = load i8, ptr %38, align 1, !tbaa !27
  %.not69 = icmp eq i8 %39, 0
  br i1 %.not69, label %46, label %40

40:                                               ; preds = %.lr.ph84._crit_edge, %37
  %41 = phi i8 [ %.pre92, %.lr.ph84._crit_edge ], [ %39, %37 ]
  %42 = zext i8 %41 to i64
  %43 = getelementptr inbounds nuw [14 x ptr], ptr @ir_type_name, i64 0, i64 %42
  %44 = load ptr, ptr %43, align 8, !tbaa !28
  %45 = tail call i32 (ptr, ptr, ...) @fprintf(ptr noundef %1, ptr noundef nonnull @.str.3, ptr noundef %44) #7
  br label %46

46:                                               ; preds = %40, %37, %35
  %47 = load i8, ptr %.15582, align 8, !tbaa !27
  %48 = zext i8 %47 to i64
  %49 = getelementptr inbounds nuw [108 x i32], ptr @ir_op_flags, i64 0, i64 %48
  %50 = load i32, ptr %49, align 4, !tbaa !30
  %51 = lshr i32 %50, 3
  %52 = and i32 %51, 3
  %53 = and i32 %50, 4
  %.not.i = icmp eq i32 %53, 0
  br i1 %.not.i, label %ir_operands_count.exit, label %54, !prof !31

54:                                               ; preds = %46
  %55 = getelementptr inbounds nuw i8, ptr %.pn80, i64 18
  %56 = load i16, ptr %55, align 2, !tbaa !27
  %57 = zext i16 %56 to i32
  br label %ir_operands_count.exit

ir_operands_count.exit:                           ; preds = %46, %54
  %.0.i = phi i32 [ %57, %54 ], [ %52, %46 ]
  %58 = getelementptr inbounds nuw i8, ptr %.pn80, i64 20
  br label %59

59:                                               ; preds = %ir_operands_count.exit, %63
  %.05876 = phi ptr [ %58, %ir_operands_count.exit ], [ %65, %63 ]
  %.06275 = phi i32 [ 1, %ir_operands_count.exit ], [ %64, %63 ]
  %60 = load i32, ptr %.05876, align 4, !tbaa !30
  %.not71 = icmp eq i32 %60, 0
  br i1 %.not71, label %63, label %61

61:                                               ; preds = %59
  %62 = tail call i32 (ptr, ptr, ...) @fprintf(ptr noundef %1, ptr noundef nonnull @.str.4, i32 noundef %60) #7
  br label %63

63:                                               ; preds = %59, %61
  %64 = add nuw nsw i32 %.06275, 1
  %65 = getelementptr inbounds nuw i8, ptr %.05876, i64 4
  %exitcond89.not = icmp eq i32 %64, 4
  br i1 %exitcond89.not, label %66, label %59

66:                                               ; preds = %63
  %67 = icmp samesign ugt i32 %.0.i, 3
  br i1 %67, label %68, label %.loopexit

68:                                               ; preds = %66
  %69 = add i32 %.181, 1
  %70 = add nsw i32 %.0.i, -4
  %71 = lshr i32 %70, 2
  %72 = add i32 %69, %71
  br label %73

73:                                               ; preds = %83, %68
  %.159 = phi ptr [ %65, %68 ], [ %82, %83 ]
  %.357 = phi ptr [ %.15582, %68 ], [ %84, %83 ]
  %.3 = phi i32 [ %.181, %68 ], [ %74, %83 ]
  %74 = add nsw i32 %.3, 1
  %75 = tail call i32 (ptr, ptr, ...) @fprintf(ptr noundef %1, ptr noundef nonnull @.str.5, i32 noundef %74) #7
  br label %76

76:                                               ; preds = %73, %80
  %.26078 = phi ptr [ %.159, %73 ], [ %82, %80 ]
  %.16377 = phi i32 [ 0, %73 ], [ %81, %80 ]
  %77 = load i32, ptr %.26078, align 4, !tbaa !30
  %.not70 = icmp eq i32 %77, 0
  br i1 %.not70, label %80, label %78

78:                                               ; preds = %76
  %79 = tail call i32 (ptr, ptr, ...) @fprintf(ptr noundef %1, ptr noundef nonnull @.str.4, i32 noundef %77) #7
  br label %80

80:                                               ; preds = %76, %78
  %81 = add nuw nsw i32 %.16377, 1
  %82 = getelementptr inbounds nuw i8, ptr %.26078, i64 4
  %exitcond90.not = icmp eq i32 %81, 4
  br i1 %exitcond90.not, label %83, label %76

83:                                               ; preds = %80
  %84 = getelementptr inbounds nuw i8, ptr %.357, i64 16
  %exitcond91.not = icmp eq i32 %74, %72
  br i1 %exitcond91.not, label %.loopexit, label %73

.loopexit:                                        ; preds = %83, %66
  %.256 = phi ptr [ %.15582, %66 ], [ %84, %83 ]
  %.2 = phi i32 [ %.181, %66 ], [ %72, %83 ]
  %fputc = tail call i32 @fputc(i32 10, ptr %1)
  %85 = add nsw i32 %.2, 1
  %86 = load i32, ptr %24, align 8, !tbaa !29
  %87 = icmp slt i32 %85, %86
  br i1 %87, label %.lr.ph84, label %._crit_edge85

._crit_edge85:                                    ; preds = %.loopexit, %._crit_edge
  ret void
}